target datalayout = "e-m:e-p270:32:32-p271:32:32-p272:64:64-i64:64-i128:128-f80:128-n8:16:32:64-S128"
target triple = "x86_64-pc-linux-gnu"

%struct._zend_posix_globals = type { i32 }
%struct._zval_struct = type { %union._zend_value, %union.anon, %union.anon.2 }
%union._zend_value = type { i64 }
%union.anon = type { i32 }
%union.anon.2 = type { i32 }
%struct._zend_execute_data = type { ptr, ptr, ptr, ptr, %struct._zval_struct, ptr, ptr, ptr, ptr }

@posix_globals = hidden global %struct._zend_posix_globals zeroinitializer, align 4

; Function Attrs: nounwind uwtable
define hidden void @zif_posix_setpgid(ptr noundef %0, ptr noundef %1) #0 {
  %3 = alloca ptr, align 8
  %4 = alloca ptr, align 8
  %5 = alloca i1, align 1
  %6 = alloca ptr, align 8
  %7 = alloca ptr, align 8
  %8 = alloca ptr, align 8
  %9 = alloca i8, align 1
  %10 = alloca i32, align 4
  %11 = alloca i8, align 1
  %12 = alloca ptr, align 8
  %13 = alloca ptr, align 8
  %14 = alloca i1, align 1
  %15 = alloca ptr, align 8
  %16 = alloca ptr, align 8
  %17 = alloca ptr, align 8
  %18 = alloca i8, align 1
  %19 = alloca i32, align 4
  %20 = alloca i8, align 1
  %21 = alloca ptr, align 8
  %22 = alloca ptr, align 8
  %23 = alloca ptr, align 8
  %24 = alloca i8, align 1
  %25 = alloca i32, align 4
  %26 = alloca ptr, align 8
  %27 = alloca ptr, align 8
  %28 = alloca ptr, align 8
  %29 = alloca i8, align 1
  %30 = alloca i32, align 4
  %31 = alloca ptr, align 8
  %32 = alloca ptr, align 8
  %33 = alloca i64, align 8
  %34 = alloca i64, align 8
  %35 = alloca i32, align 4
  %36 = alloca i32, align 4
  %37 = alloca i32, align 4
  %38 = alloca i32, align 4
  %39 = alloca i32, align 4
  %40 = alloca ptr, align 8
  %41 = alloca ptr, align 8
  %42 = alloca i32, align 4
  %43 = alloca ptr, align 8
  %44 = alloca i8, align 1
  %45 = alloca i8, align 1
  %46 = alloca i32, align 4
  store ptr %0, ptr %31, align 8
  store ptr %1, ptr %32, align 8
  br label %47

47:                                               ; preds = %2
  store i32 0, ptr %35, align 4
  store i32 2, ptr %36, align 4
  store i32 2, ptr %37, align 4
  %48 = load ptr, ptr %31, align 8
  %49 = getelementptr inbounds %struct._zend_execute_data, ptr %48, i32 0, i32 4
  %50 = getelementptr inbounds %struct._zval_struct, ptr %49, i32 0, i32 2
  %51 = load i32, ptr %50, align 4
  store i32 %51, ptr %38, align 4
  store i32 0, ptr %39, align 4
  store ptr null, ptr %41, align 8
  store i32 0, ptr %42, align 4
  store ptr null, ptr %43, align 8
  store i8 0, ptr %44, align 1
  store i8 0, ptr %45, align 1
  store i32 0, ptr %46, align 4
  br label %52

52:                                               ; preds = %47
  %53 = load i32, ptr %38, align 4
  %54 = load i32, ptr %36, align 4
  %55 = icmp ult i32 %53, %54
  %56 = xor i1 %55, true
  %57 = xor i1 %56, true
  %58 = zext i1 %57 to i32
  %59 = sext i32 %58 to i64
  %60 = icmp ne i64 %59, 0
  br i1 %60, label %70, label %61

61:                                               ; preds = %52
  %62 = load i32, ptr %38, align 4
  %63 = load i32, ptr %37, align 4
  %64 = icmp ugt i32 %62, %63
  %65 = xor i1 %64, true
  %66 = xor i1 %65, true
  %67 = zext i1 %66 to i32
  %68 = sext i32 %67 to i64
  %69 = icmp ne i64 %68, 0
  br i1 %69, label %70, label %73

70:                                               ; preds = %61, %52
  %71 = load i32, ptr %36, align 4
  %72 = load i32, ptr %37, align 4
  call void @zend_wrong_parameters_count_error(i32 noundef %71, i32 noundef %72)
  store i32 1, ptr %46, align 4
  br label %284

73:                                               ; preds = %61
  %74 = load ptr, ptr %31, align 8
  %75 = getelementptr inbounds %struct._zval_struct, ptr %74, i64 4
  store ptr %75, ptr %40, align 8
  %76 = load i32, ptr %39, align 4
  %77 = add i32 %76, 1
  store i32 %77, ptr %39, align 4
  %78 = load i32, ptr %39, align 4
  %79 = load i32, ptr %36, align 4
  %80 = icmp ule i32 %78, %79
  br i1 %80, label %86, label %81

81:                                               ; preds = %73
  %82 = load i8, ptr %45, align 1
  %83 = trunc i8 %82 to i1
  %84 = zext i1 %83 to i32
  %85 = icmp eq i32 %84, 1
  br label %86

86:                                               ; preds = %81, %73
  %87 = phi i1 [ true, %73 ], [ %85, %81 ]
  call void @llvm.assume(i1 %87)
  %88 = load i32, ptr %39, align 4
  %89 = load i32, ptr %36, align 4
  %90 = icmp ugt i32 %88, %89
  br i1 %90, label %96, label %91

91:                                               ; preds = %86
  %92 = load i8, ptr %45, align 1
  %93 = trunc i8 %92 to i1
  %94 = zext i1 %93 to i32
  %95 = icmp eq i32 %94, 0
  br label %96

96:                                               ; preds = %91, %86
  %97 = phi i1 [ true, %86 ], [ %95, %91 ]
  call void @llvm.assume(i1 %97)
  %98 = load i8, ptr %45, align 1
  %99 = trunc i8 %98 to i1
  br i1 %99, label %100, label %111

100:                                              ; preds = %96
  %101 = load i32, ptr %39, align 4
  %102 = load i32, ptr %38, align 4
  %103 = icmp ugt i32 %101, %102
  %104 = xor i1 %103, true
  %105 = xor i1 %104, true
  %106 = zext i1 %105 to i32
  %107 = sext i32 %106 to i64
  %108 = icmp ne i64 %107, 0
  br i1 %108, label %109, label %110

109:                                              ; preds = %100
  br label %284

110:                                              ; preds = %100
  br label %111

111:                                              ; preds = %110, %96
  %112 = load ptr, ptr %40, align 8
  %113 = getelementptr inbounds %struct._zval_struct, ptr %112, i32 1
  store ptr %113, ptr %40, align 8
  %114 = load ptr, ptr %40, align 8
  store ptr %114, ptr %41, align 8
  %115 = load ptr, ptr %41, align 8
  %116 = load i32, ptr %39, align 4
  store ptr %115, ptr %21, align 8
  store ptr %33, ptr %22, align 8
  store ptr %44, ptr %23, align 8
  store i8 0, ptr %24, align 1
  store i32 %116, ptr %25, align 4
  %117 = load ptr, ptr %21, align 8
  %118 = load ptr, ptr %22, align 8
  %119 = load ptr, ptr %23, align 8
  %120 = load i8, ptr %24, align 1
  %121 = trunc i8 %120 to i1
  %122 = load i32, ptr %25, align 4
  store ptr %117, ptr %15, align 8
  store ptr %118, ptr %16, align 8
  store ptr %119, ptr %17, align 8
  %123 = zext i1 %121 to i8
  store i8 %123, ptr %18, align 1
  store i32 %122, ptr %19, align 4
  store i8 0, ptr %20, align 1
  %124 = load i8, ptr %18, align 1
  %125 = trunc i8 %124 to i1
  br i1 %125, label %126, label %128

126:                                              ; preds = %111
  %127 = load ptr, ptr %17, align 8
  store i8 0, ptr %127, align 1
  br label %128

128:                                              ; preds = %126, %111
  %129 = load ptr, ptr %15, align 8
  store ptr %129, ptr %12, align 8
  %130 = load ptr, ptr %12, align 8
  %131 = getelementptr inbounds %struct._zval_struct, ptr %130, i32 0, i32 1
  %132 = load i8, ptr %131, align 8
  %133 = zext i8 %132 to i32
  %134 = icmp eq i32 %133, 4
  br i1 %134, label %135, label %139

135:                                              ; preds = %128
  %136 = load ptr, ptr %15, align 8
  %137 = load i64, ptr %136, align 8
  %138 = load ptr, ptr %16, align 8
  store i64 %137, ptr %138, align 8
  br label %165

139:                                              ; preds = %128
  %140 = load i8, ptr %18, align 1
  %141 = trunc i8 %140 to i1
  br i1 %141, label %142, label %152

142:                                              ; preds = %139
  %143 = load ptr, ptr %15, align 8
  store ptr %143, ptr %13, align 8
  %144 = load ptr, ptr %13, align 8
  %145 = getelementptr inbounds %struct._zval_struct, ptr %144, i32 0, i32 1
  %146 = load i8, ptr %145, align 8
  %147 = zext i8 %146 to i32
  %148 = icmp eq i32 %147, 1
  br i1 %148, label %149, label %152

149:                                              ; preds = %142
  %150 = load ptr, ptr %17, align 8
  store i8 1, ptr %150, align 1
  %151 = load ptr, ptr %16, align 8
  store i64 0, ptr %151, align 8
  br label %165

152:                                              ; preds = %142, %139
  %153 = load i8, ptr %20, align 1
  %154 = trunc i8 %153 to i1
  br i1 %154, label %155, label %160

155:                                              ; preds = %152
  %156 = load ptr, ptr %15, align 8
  %157 = load ptr, ptr %16, align 8
  %158 = load i32, ptr %19, align 4
  %159 = call zeroext i1 @zend_flf_parse_arg_long_slow(ptr noundef %156, ptr noundef %157, i32 noundef %158) #9
  store i1 %159, ptr %14, align 1
  br label %166

160:                                              ; preds = %152
  %161 = load ptr, ptr %15, align 8
  %162 = load ptr, ptr %16, align 8
  %163 = load i32, ptr %19, align 4
  %164 = call zeroext i1 @zend_parse_arg_long_slow(ptr noundef %161, ptr noundef %162, i32 noundef %163) #9
  store i1 %164, ptr %14, align 1
  br label %166

165:                                              ; preds = %149, %135
  store i1 true, ptr %14, align 1
  br label %166

166:                                              ; preds = %165, %160, %155
  %167 = load i1, ptr %14, align 1
  %168 = xor i1 %167, true
  %169 = xor i1 %168, true
  %170 = xor i1 %169, true
  %171 = zext i1 %170 to i32
  %172 = sext i32 %171 to i64
  %173 = icmp ne i64 %172, 0
  br i1 %173, label %174, label %175

174:                                              ; preds = %166
  store i32 0, ptr %42, align 4
  store i32 9, ptr %46, align 4
  br label %284

175:                                              ; preds = %166
  %176 = load i32, ptr %39, align 4
  %177 = add i32 %176, 1
  store i32 %177, ptr %39, align 4
  %178 = load i32, ptr %39, align 4
  %179 = load i32, ptr %36, align 4
  %180 = icmp ule i32 %178, %179
  br i1 %180, label %186, label %181

181:                                              ; preds = %175
  %182 = load i8, ptr %45, align 1
  %183 = trunc i8 %182 to i1
  %184 = zext i1 %183 to i32
  %185 = icmp eq i32 %184, 1
  br label %186

186:                                              ; preds = %181, %175
  %187 = phi i1 [ true, %175 ], [ %185, %181 ]
  call void @llvm.assume(i1 %187)
  %188 = load i32, ptr %39, align 4
  %189 = load i32, ptr %36, align 4
  %190 = icmp ugt i32 %188, %189
  br i1 %190, label %196, label %191

191:                                              ; preds = %186
  %192 = load i8, ptr %45, align 1
  %193 = trunc i8 %192 to i1
  %194 = zext i1 %193 to i32
  %195 = icmp eq i32 %194, 0
  br label %196

196:                                              ; preds = %191, %186
  %197 = phi i1 [ true, %186 ], [ %195, %191 ]
  call void @llvm.assume(i1 %197)
  %198 = load i8, ptr %45, align 1
  %199 = trunc i8 %198 to i1
  br i1 %199, label %200, label %211

200:                                              ; preds = %196
  %201 = load i32, ptr %39, align 4
  %202 = load i32, ptr %38, align 4
  %203 = icmp ugt i32 %201, %202
  %204 = xor i1 %203, true
  %205 = xor i1 %204, true
  %206 = zext i1 %205 to i32
  %207 = sext i32 %206 to i64
  %208 = icmp ne i64 %207, 0
  br i1 %208, label %209, label %210

209:                                              ; preds = %200
  br label %284

210:                                              ; preds = %200
  br label %211

211:                                              ; preds = %210, %196
  %212 = load ptr, ptr %40, align 8
  %213 = getelementptr inbounds %struct._zval_struct, ptr %212, i32 1
  store ptr %213, ptr %40, align 8
  %214 = load ptr, ptr %40, align 8
  store ptr %214, ptr %41, align 8
  %215 = load ptr, ptr %41, align 8
  %216 = load i32, ptr %39, align 4
  store ptr %215, ptr %26, align 8
  store ptr %34, ptr %27, align 8
  store ptr %44, ptr %28, align 8
  store i8 0, ptr %29, align 1
  store i32 %216, ptr %30, align 4
  %217 = load ptr, ptr %26, align 8
  %218 = load ptr, ptr %27, align 8
  %219 = load ptr, ptr %28, align 8
  %220 = load i8, ptr %29, align 1
  %221 = trunc i8 %220 to i1
  %222 = load i32, ptr %30, align 4
  store ptr %217, ptr %6, align 8
  store ptr %218, ptr %7, align 8
  store ptr %219, ptr %8, align 8
  %223 = zext i1 %221 to i8
  store i8 %223, ptr %9, align 1
  store i32 %222, ptr %10, align 4
  store i8 0, ptr %11, align 1
  %224 = load i8, ptr %9, align 1
  %225 = trunc i8 %224 to i1
  br i1 %225, label %226, label %228

226:                                              ; preds = %211
  %227 = load ptr, ptr %8, align 8
  store i8 0, ptr %227, align 1
  br label %228

228:                                              ; preds = %226, %211
  %229 = load ptr, ptr %6, align 8
  store ptr %229, ptr %3, align 8
  %230 = load ptr, ptr %3, align 8
  %231 = getelementptr inbounds %struct._zval_struct, ptr %230, i32 0, i32 1
  %232 = load i8, ptr %231, align 8
  %233 = zext i8 %232 to i32
  %234 = icmp eq i32 %233, 4
  br i1 %234, label %235, label %239

235:                                              ; preds = %228
  %236 = load ptr, ptr %6, align 8
  %237 = load i64, ptr %236, align 8
  %238 = load ptr, ptr %7, align 8
  store i64 %237, ptr %238, align 8
  br label %265

239:                                              ; preds = %228
  %240 = load i8, ptr %9, align 1
  %241 = trunc i8 %240 to i1
  br i1 %241, label %242, label %252

242:                                              ; preds = %239
  %243 = load ptr, ptr %6, align 8
  store ptr %243, ptr %4, align 8
  %244 = load ptr, ptr %4, align 8
  %245 = getelementptr inbounds %struct._zval_struct, ptr %244, i32 0, i32 1
  %246 = load i8, ptr %245, align 8
  %247 = zext i8 %246 to i32
  %248 = icmp eq i32 %247, 1
  br i1 %248, label %249, label %252

249:                                              ; preds = %242
  %250 = load ptr, ptr %8, align 8
  store i8 1, ptr %250, align 1
  %251 = load ptr, ptr %7, align 8
  store i64 0, ptr %251, align 8
  br label %265

252:                                              ; preds = %242, %239
  %253 = load i8, ptr %11, align 1
  %254 = trunc i8 %253 to i1
  br i1 %254, label %255, label %260

255:                                              ; preds = %252
  %256 = load ptr, ptr %6, align 8
  %257 = load ptr, ptr %7, align 8
  %258 = load i32, ptr %10, align 4
  %259 = call zeroext i1 @zend_flf_parse_arg_long_slow(ptr noundef %256, ptr noundef %257, i32 noundef %258) #9
  store i1 %259, ptr %5, align 1
  br label %266

260:                                              ; preds = %252
  %261 = load ptr, ptr %6, align 8
  %262 = load ptr, ptr %7, align 8
  %263 = load i32, ptr %10, align 4
  %264 = call zeroext i1 @zend_parse_arg_long_slow(ptr noundef %261, ptr noundef %262, i32 noundef %263) #9
  store i1 %264, ptr %5, align 1
  br label %266

265:                                              ; preds = %249, %235
  store i1 true, ptr %5, align 1
  br label %266

266:                                              ; preds = %265, %260, %255
  %267 = load i1, ptr %5, align 1
  %268 = xor i1 %267, true
  %269 = xor i1 %268, true
  %270 = xor i1 %269, true
  %271 = zext i1 %270 to i32
  %272 = sext i32 %271 to i64
  %273 = icmp ne i64 %272, 0
  br i1 %273, label %274, label %275

274:                                              ; preds = %266
  store i32 0, ptr %42, align 4
  store i32 9, ptr %46, align 4
  br label %284

275:                                              ; preds = %266
  %276 = load i32, ptr %39, align 4
  %277 = load i32, ptr %37, align 4
  %278 = icmp eq i32 %276, %277
  br i1 %278, label %282, label %279

279:                                              ; preds = %275
  %280 = load i32, ptr %37, align 4
  %281 = icmp eq i32 %280, -1
  br label %282

282:                                              ; preds = %279, %275
  %283 = phi i1 [ true, %275 ], [ %281, %279 ]
  call void @llvm.assume(i1 %283)
  br label %284

284:                                              ; preds = %282, %274, %209, %174, %109, %70
  %285 = load i32, ptr %46, align 4
  %286 = icmp ne i32 %285, 0
  %287 = xor i1 %286, true
  %288 = xor i1 %287, true
  %289 = zext i1 %288 to i32
  %290 = sext i32 %289 to i64
  %291 = icmp ne i64 %290, 0
  br i1 %291, label %292, label %298

292:                                              ; preds = %284
  %293 = load i32, ptr %46, align 4
  %294 = load i32, ptr %39, align 4
  %295 = load ptr, ptr %43, align 8
  %296 = load i32, ptr %42, align 4
  %297 = load ptr, ptr %41, align 8
  call void @zend_wrong_parameter_error(i32 noundef %293, i32 noundef %294, ptr noundef %295, i32 noundef %296, ptr noundef %297)
  br label %321

298:                                              ; preds = %284
  br label %299

299:                                              ; preds = %298
  %300 = load i64, ptr %33, align 8
  %301 = trunc i64 %300 to i32
  %302 = load i64, ptr %34, align 8
  %303 = trunc i64 %302 to i32
  %304 = call i32 @setpgid(i32 noundef %301, i32 noundef %303) #9
  %305 = icmp slt i32 %304, 0
  br i1 %305, label %306, label %315

306:                                              ; preds = %299
  %307 = call ptr @__errno_location() #10
  %308 = load i32, ptr %307, align 4
  store i32 %308, ptr @posix_globals, align 4
  br label %309

309:                                              ; preds = %306
  br label %310

310:                                              ; preds = %309
  %311 = load ptr, ptr %32, align 8
  %312 = getelementptr inbounds %struct._zval_struct, ptr %311, i32 0, i32 1
  store i32 2, ptr %312, align 8
  br label %313

313:                                              ; preds = %310
  br label %321

314:                                              ; No predecessors!
  br label %315

315:                                              ; preds = %314, %299
  br label %316

316:                                              ; preds = %315
  br label %317

317:                                              ; preds = %316
  %318 = load ptr, ptr %32, align 8
  %319 = getelementptr inbounds %struct._zval_struct, ptr %318, i32 0, i32 1
  store i32 3, ptr %319, align 8
  br label %320

320:                                              ; preds = %317
  br label %321

321:                                              ; preds = %320, %313, %292
  ret void
}