; Function Attrs: nounwind uwtable
define hidden void @zif_posix_setpgid(ptr noundef %0, ptr nocapture noundef writeonly %1) #0 {
  %3 = alloca i64, align 8
  %4 = alloca i64, align 8
  %5 = getelementptr inbounds i8, ptr %0, i64 44
  %6 = load i32, ptr %5, align 4
  %.not = icmp eq i32 %6, 2
  br i1 %.not, label %8, label %7

7:                                                ; preds = %2
  tail call void @zend_wrong_parameters_count_error(i32 noundef 2, i32 noundef 2) #11
  br label %.thread112

8:                                                ; preds = %2
  %9 = getelementptr inbounds i8, ptr %0, i64 80
  %10 = getelementptr inbounds i8, ptr %0, i64 88
  %11 = load i8, ptr %10, align 8
  %12 = icmp eq i8 %11, 4
  br i1 %12, label %.critedge, label %14

.critedge:                                        ; preds = %8
  %13 = load i64, ptr %9, align 8
  store i64 %13, ptr %3, align 8
  br label %16

14:                                               ; preds = %8
  %15 = call zeroext i1 @zend_parse_arg_long_slow(ptr noundef nonnull %9, ptr noundef nonnull %3, i32 noundef 1) #11
  br i1 %15, label %16, label %.thread112

16:                                               ; preds = %14, %.critedge
  %17 = getelementptr inbounds i8, ptr %0, i64 96
  %18 = getelementptr inbounds i8, ptr %0, i64 104
  %19 = load i8, ptr %18, align 8
  %20 = icmp eq i8 %19, 4
  br i1 %20, label %.thread108, label %22

.thread108:                                       ; preds = %16
  %21 = load i64, ptr %17, align 8
  store i64 %21, ptr %4, align 8
  br label %.thread126

22:                                               ; preds = %16
  %23 = call zeroext i1 @zend_parse_arg_long_slow(ptr noundef nonnull %17, ptr noundef nonnull %4, i32 noundef 2) #11
  %.fr = freeze i1 %23
  br i1 %.fr, label %..thread126_crit_edge, label %.thread112

..thread126_crit_edge:                            ; preds = %22
  %.pre = load i64, ptr %4, align 8
  br label %.thread126

.thread112:                                       ; preds = %14, %7, %22
  %.0119 = phi i32 [ 9, %22 ], [ 9, %14 ], [ 1, %7 ]
  %.097118 = phi ptr [ %17, %22 ], [ %9, %14 ], [ null, %7 ]
  %.098117 = phi i32 [ 2, %22 ], [ 1, %14 ], [ 0, %7 ]
  call void @zend_wrong_parameter_error(i32 noundef %.0119, i32 noundef %.098117, ptr noundef null, i32 noundef 0, ptr noundef %.097118) #11
  br label %36

.thread126:                                       ; preds = %..thread126_crit_edge, %.thread108
  %24 = phi i64 [ %.pre, %..thread126_crit_edge ], [ %21, %.thread108 ]
  %25 = load i64, ptr %3, align 8
  %26 = trunc i64 %25 to i32
  %27 = trunc i64 %24 to i32
  %28 = call i32 @setpgid(i32 noundef %26, i32 noundef %27) #11
  %29 = icmp slt i32 %28, 0
  br i1 %29, label %30, label %34

30:                                               ; preds = %.thread126
  %31 = tail call ptr @__errno_location() #12
  %32 = load i32, ptr %31, align 4
  store i32 %32, ptr @posix_globals, align 4
  %33 = getelementptr inbounds i8, ptr %1, i64 8
  store i32 2, ptr %33, align 8
  br label %36

34:                                               ; preds = %.thread126
  %35 = getelementptr inbounds i8, ptr %1, i64 8
  store i32 3, ptr %35, align 8
  br label %36

36:                                               ; preds = %34, %30, %.thread112
  ret void
}